target datalayout = "e-m:e-p270:32:32-p271:32:32-p272:64:64-i64:64-i128:128-f80:128-n8:16:32:64-S128"
target triple = "x86_64-unknown-linux-gnu"

%struct.BlockLimits = type { i32, i64, i32, i64, i32, i32, i32, i64, i32, i64, i64, i32, i8, i32, i32, i32, i32, i32, i32, i32 }
%struct.BlockDriverState = type { i32, i8, i8, i8, i8, i8, ptr, ptr, ptr, %struct.anon.1, i8, [4096 x i8], [4096 x i8], [4096 x i8], [16 x i8], ptr, [4096 x i8], %struct.BlockLimits, i32, i32, i32, i32, [32 x i8], %union.anon, %union.anon.2, %union.anon.3, i32, [16 x %struct.anon.4], ptr, %struct.anon.5, ptr, ptr, %struct.anon.6, ptr, ptr, i32, ptr, i64, i64, %struct.QemuMutex, %struct.anon.7, %struct.Stat64, i32, i32, i32, i32, i32, i32, %struct.QemuMutex, %struct.anon.8, %struct.CoQueue, i8, i32, i8, %struct.CoMutex, ptr, ptr }
%struct.anon.1 = type { ptr }
%union.anon = type { %struct.QTailQLink }
%struct.QTailQLink = type { ptr, ptr }
%union.anon.2 = type { %struct.QTailQLink }
%union.anon.3 = type { %struct.QTailQLink }
%struct.anon.4 = type { ptr }
%struct.anon.5 = type { ptr }
%struct.anon.6 = type { ptr }
%struct.anon.7 = type { ptr }
%struct.Stat64 = type { i64 }
%struct.QemuMutex = type { %union.pthread_mutex_t, i8 }
%union.pthread_mutex_t = type { %struct.__pthread_mutex_s }
%struct.__pthread_mutex_s = type { i32, i32, i32, i32, i32, i16, i16, %struct.__pthread_internal_list }
%struct.__pthread_internal_list = type { ptr, ptr }
%struct.anon.8 = type { ptr }
%struct.CoQueue = type { %struct.anon.9 }
%struct.anon.9 = type { ptr, ptr }
%struct.CoMutex = type { i32, ptr, %struct.anon.10, %struct.anon.10, i32, i32, ptr }
%struct.anon.10 = type { ptr }
%struct.BlockDriver = type { ptr, i32, i8, i8, i8, i8, i8, i8, ptr, ptr, ptr, ptr, ptr, ptr, ptr, ptr, ptr, ptr, ptr, ptr, ptr, ptr, ptr, ptr, ptr, ptr, ptr, ptr, ptr, ptr, ptr, ptr, ptr, ptr, ptr, ptr, ptr, ptr, ptr, ptr, ptr, ptr, ptr, ptr, ptr, ptr, ptr, ptr, ptr, ptr, ptr, ptr, ptr, ptr, ptr, ptr, ptr, ptr, ptr, ptr, ptr, %struct.anon.11, ptr, ptr, ptr, ptr, ptr, ptr, ptr, ptr, ptr, ptr, ptr, ptr, ptr, ptr, ptr, ptr, ptr, ptr, ptr, ptr, ptr, ptr, ptr, ptr, ptr, ptr, ptr, ptr, ptr, ptr, ptr, ptr, ptr, ptr, ptr, ptr, ptr, ptr, ptr, ptr, ptr, ptr, ptr, ptr, ptr, ptr, ptr, ptr, ptr }
%struct.anon.11 = type { ptr, ptr }
%struct.GraphLockableMainloop = type {}

@.str = private unnamed_addr constant [22 x i8] c"qemu_in_main_thread()\00", align 1
@.str.1 = private unnamed_addr constant [19 x i8] c"../qemu/block/io.c\00", align 1
@__PRETTY_FUNCTION__.bdrv_cancel_in_flight = private unnamed_addr constant [47 x i8] c"void bdrv_cancel_in_flight(BlockDriverState *)\00", align 1

; Function Attrs: nounwind sspstrong uwtable
define internal void @graph_lockable_auto_unlock_mainloop(ptr noundef %x) #0 {
entry:
  %x.addr = alloca ptr, align 8
  store ptr %x, ptr %x.addr, align 8
  call void @bdrv_graph_rdunlock_main_loop()
  ret void
}

; Function Attrs: nounwind sspstrong uwtable
define internal void @glib_autoptr_clear_GraphLockableMainloop(ptr noundef %_ptr) #0 {
entry:
  %_ptr.addr = alloca ptr, align 8
  store ptr %_ptr, ptr %_ptr.addr, align 8
  %0 = load ptr, ptr %_ptr.addr, align 8
  %tobool = icmp ne ptr %0, null
  br i1 %tobool, label %if.then, label %if.end

if.then:                                          ; preds = %entry
  %1 = load ptr, ptr %_ptr.addr, align 8
  call void @graph_lockable_auto_unlock_mainloop(ptr noundef %1)
  br label %if.end

if.end:                                           ; preds = %if.then, %entry
  ret void
}

; Function Attrs: nounwind sspstrong uwtable
define internal void @glib_autoptr_cleanup_GraphLockableMainloop(ptr noundef %_ptr) #0 {
entry:
  %_ptr.addr = alloca ptr, align 8
  store ptr %_ptr, ptr %_ptr.addr, align 8
  %0 = load ptr, ptr %_ptr.addr, align 8
  %1 = load ptr, ptr %0, align 8
  call void @glib_autoptr_clear_GraphLockableMainloop(ptr noundef %1)
  ret void
}

; Function Attrs: nounwind sspstrong uwtable
define internal ptr @graph_lockable_auto_lock_mainloop(ptr noundef %x) #0 {
entry:
  %x.addr = alloca ptr, align 8
  store ptr %x, ptr %x.addr, align 8
  call void @bdrv_graph_rdlock_main_loop()
  %0 = load ptr, ptr %x.addr, align 8
  ret ptr %0
}

; Function Attrs: nounwind sspstrong uwtable
define dso_local void @bdrv_cancel_in_flight(ptr noundef %bs) #0 {
entry:
  %bs.addr = alloca ptr, align 8
  %graph_lockable_auto89 = alloca ptr, align 8
  %.compoundliteral = alloca %struct.GraphLockableMainloop, align 1
  %cleanup.dest.slot = alloca i32, align 4
  store ptr %bs, ptr %bs.addr, align 8
  br label %do.body

do.body:                                          ; preds = %entry
  %call = call zeroext i1 @qemu_in_main_thread()
  br i1 %call, label %if.then, label %if.else

if.then:                                          ; preds = %do.body
  br label %if.end

if.else:                                          ; preds = %do.body
  call void @__assert_fail(ptr noundef @.str, ptr noundef @.str.1, i32 noundef 3687, ptr noundef @__PRETTY_FUNCTION__.bdrv_cancel_in_flight) #10
  unreachable

if.end:                                           ; preds = %if.then
  br label %do.end

do.end:                                           ; preds = %if.end
  %call1 = call ptr @graph_lockable_auto_lock_mainloop(ptr noundef %.compoundliteral)
  store ptr %call1, ptr %graph_lockable_auto89, align 8
  %0 = load ptr, ptr %bs.addr, align 8
  %tobool = icmp ne ptr %0, null
  br i1 %tobool, label %lor.lhs.false, label %if.then3

lor.lhs.false:                                    ; preds = %do.end
  %1 = load ptr, ptr %bs.addr, align 8
  %drv = getelementptr inbounds %struct.BlockDriverState, ptr %1, i32 0, i32 6
  %2 = load ptr, ptr %drv, align 8
  %tobool2 = icmp ne ptr %2, null
  br i1 %tobool2, label %if.end4, label %if.then3

if.then3:                                         ; preds = %lor.lhs.false, %do.end
  store i32 1, ptr %cleanup.dest.slot, align 4
  br label %cleanup

if.end4:                                          ; preds = %lor.lhs.false
  %3 = load ptr, ptr %bs.addr, align 8
  %drv5 = getelementptr inbounds %struct.BlockDriverState, ptr %3, i32 0, i32 6
  %4 = load ptr, ptr %drv5, align 8
  %bdrv_cancel_in_flight = getelementptr inbounds %struct.BlockDriver, ptr %4, i32 0, i32 33
  %5 = load ptr, ptr %bdrv_cancel_in_flight, align 8
  %tobool6 = icmp ne ptr %5, null
  br i1 %tobool6, label %if.then7, label %if.end10

if.then7:                                         ; preds = %if.end4
  %6 = load ptr, ptr %bs.addr, align 8
  %drv8 = getelementptr inbounds %struct.BlockDriverState, ptr %6, i32 0, i32 6
  %7 = load ptr, ptr %drv8, align 8
  %bdrv_cancel_in_flight9 = getelementptr inbounds %struct.BlockDriver, ptr %7, i32 0, i32 33
  %8 = load ptr, ptr %bdrv_cancel_in_flight9, align 8
  %9 = load ptr, ptr %bs.addr, align 8
  call void %8(ptr noundef %9)
  br label %if.end10

if.end10:                                         ; preds = %if.then7, %if.end4
  store i32 0, ptr %cleanup.dest.slot, align 4
  br label %cleanup

cleanup:                                          ; preds = %if.end10, %if.then3
  call void @glib_autoptr_cleanup_GraphLockableMainloop(ptr noundef %graph_lockable_auto89)
  %cleanup.dest = load i32, ptr %cleanup.dest.slot, align 4
  switch i32 %cleanup.dest, label %unreachable [
    i32 0, label %cleanup.cont
    i32 1, label %cleanup.cont
  ]

cleanup.cont:                                     ; preds = %cleanup, %cleanup
  ret void

unreachable:                                      ; preds = %cleanup
  unreachable
}