; Function Attrs: nounwind sspstrong uwtable
define dso_local void @bdrv_cancel_in_flight(ptr noundef %bs) local_unnamed_addr #0 {
entry:
  %call = tail call zeroext i1 @qemu_in_main_thread() #15
  br i1 %call, label %do.end, label %if.else

if.else:                                          ; preds = %entry
  tail call void @__assert_fail(ptr noundef nonnull @.str, ptr noundef nonnull @.str.1, i32 noundef 3687, ptr noundef nonnull @__PRETTY_FUNCTION__.bdrv_cancel_in_flight) #16
  unreachable

do.end:                                           ; preds = %entry
  tail call void @bdrv_graph_rdlock_main_loop() #15
  %tobool.not = icmp eq ptr %bs, null
  br i1 %tobool.not, label %glib_autoptr_cleanup_GraphLockableMainloop.exit, label %lor.lhs.false

lor.lhs.false:                                    ; preds = %do.end
  %drv = getelementptr inbounds nuw i8, ptr %bs, i64 16
  %0 = load ptr, ptr %drv, align 8
  %tobool2.not = icmp eq ptr %0, null
  br i1 %tobool2.not, label %glib_autoptr_cleanup_GraphLockableMainloop.exit, label %if.end4

if.end4:                                          ; preds = %lor.lhs.false
  %bdrv_cancel_in_flight = getelementptr inbounds nuw i8, ptr %0, i64 224
  %1 = load ptr, ptr %bdrv_cancel_in_flight, align 8
  %tobool6.not = icmp eq ptr %1, null
  br i1 %tobool6.not, label %glib_autoptr_cleanup_GraphLockableMainloop.exit, label %if.then7

if.then7:                                         ; preds = %if.end4
  tail call void %1(ptr noundef nonnull %bs) #15
  br label %glib_autoptr_cleanup_GraphLockableMainloop.exit

glib_autoptr_cleanup_GraphLockableMainloop.exit:  ; preds = %if.end4, %if.then7, %do.end, %lor.lhs.false
  tail call void @bdrv_graph_rdunlock_main_loop() #15
  ret void
}